target datalayout = "e-m:e-p270:32:32-p271:32:32-p272:64:64-i64:64-i128:128-f80:128-n8:16:32:64-S128"
target triple = "x86_64-pc-linux-gnu"

%struct.DdManager = type { %struct.DdNode, ptr, ptr, ptr, ptr, ptr, ptr, ptr, i32, i32, double, double, double, i32, i32, i32, i32, i32, i32, ptr, ptr, %struct.DdSubtable, i32, i32, i32, i32, i32, i32, i32, double, i32, i32, i32, ptr, i64, double, i32, ptr, ptr, ptr, ptr, ptr, ptr, ptr, i32, ptr, ptr, ptr, ptr, ptr, ptr, i32, i32, i32, double, i32, i32, i32, i32, double, double, i32, i32, i32, i32, i32, i32, i32, i32, i32, ptr, ptr, i32, i32, i32, i32, i32, i32, ptr, ptr, ptr, ptr, ptr, ptr, ptr, ptr, i32, i64, i64, i64, i32, i64, i64, double, double, double, double, double, double, i32, ptr, ptr, i64 }
%struct.DdNode = type { i32, i32, ptr, %union.anon, i64 }
%union.anon = type { %struct.DdChildren }
%struct.DdChildren = type { ptr, ptr }
%struct.DdSubtable = type { ptr, i32, i32, i32, i32, i32, i32, i32, i32, i32, i32, i32 }

; Function Attrs: nounwind uwtable
define ptr @extraBddMove(ptr noundef %0, ptr noundef %1, ptr noundef %2) #0 {
  %4 = alloca ptr, align 8
  %5 = alloca ptr, align 8
  %6 = alloca ptr, align 8
  %7 = alloca ptr, align 8
  %8 = alloca ptr, align 8
  %9 = alloca i32, align 4
  %10 = alloca ptr, align 8
  %11 = alloca ptr, align 8
  %12 = alloca ptr, align 8
  %13 = alloca ptr, align 8
  %14 = alloca ptr, align 8
  %15 = alloca i32, align 4
  store ptr %0, ptr %5, align 8, !tbaa !3
  store ptr %1, ptr %6, align 8, !tbaa !8
  store ptr %2, ptr %7, align 8, !tbaa !8
  call void @llvm.lifetime.start.p0(i64 8, ptr %8) #10
  %16 = load ptr, ptr %6, align 8, !tbaa !8
  %17 = ptrtoint ptr %16 to i64
  %18 = and i64 %17, -2
  %19 = inttoptr i64 %18 to ptr
  %20 = getelementptr inbounds nuw %struct.DdNode, ptr %19, i32 0, i32 0
  %21 = load i32, ptr %20, align 8, !tbaa !42
  %22 = icmp eq i32 %21, 2147483647
  br i1 %22, label %23, label %25

23:                                               ; preds = %3
  %24 = load ptr, ptr %6, align 8, !tbaa !8
  store ptr %24, ptr %4, align 8
  store i32 1, ptr %9, align 4
  br label %166

25:                                               ; preds = %3
  %26 = load ptr, ptr %5, align 8, !tbaa !3
  %27 = load ptr, ptr %6, align 8, !tbaa !8
  %28 = load ptr, ptr %7, align 8, !tbaa !8
  %29 = call ptr @cuddCacheLookup2(ptr noundef %26, ptr noundef @extraBddMove, ptr noundef %27, ptr noundef %28)
  store ptr %29, ptr %8, align 8, !tbaa !8
  %30 = icmp ne ptr %29, null
  br i1 %30, label %31, label %33

31:                                               ; preds = %25
  %32 = load ptr, ptr %8, align 8, !tbaa !8
  store ptr %32, ptr %4, align 8
  store i32 1, ptr %9, align 4
  br label %166

33:                                               ; preds = %25
  call void @llvm.lifetime.start.p0(i64 8, ptr %10) #10
  call void @llvm.lifetime.start.p0(i64 8, ptr %11) #10
  call void @llvm.lifetime.start.p0(i64 8, ptr %12) #10
  call void @llvm.lifetime.start.p0(i64 8, ptr %13) #10
  call void @llvm.lifetime.start.p0(i64 8, ptr %14) #10
  %34 = load ptr, ptr %6, align 8, !tbaa !8
  %35 = ptrtoint ptr %34 to i64
  %36 = and i64 %35, -2
  %37 = inttoptr i64 %36 to ptr
  store ptr %37, ptr %14, align 8, !tbaa !8
  call void @llvm.lifetime.start.p0(i64 4, ptr %15) #10
  %38 = load ptr, ptr %7, align 8, !tbaa !8
  %39 = ptrtoint ptr %38 to i64
  %40 = and i64 %39, 1
  %41 = trunc i64 %40 to i32
  %42 = icmp ne i32 %41, 0
  br i1 %42, label %43, label %54

43:                                               ; preds = %33
  %44 = load ptr, ptr %14, align 8, !tbaa !8
  %45 = getelementptr inbounds nuw %struct.DdNode, ptr %44, i32 0, i32 0
  %46 = load i32, ptr %45, align 8, !tbaa !42
  %47 = load ptr, ptr %7, align 8, !tbaa !8
  %48 = ptrtoint ptr %47 to i64
  %49 = xor i64 %48, 1
  %50 = inttoptr i64 %49 to ptr
  %51 = getelementptr inbounds nuw %struct.DdNode, ptr %50, i32 0, i32 0
  %52 = load i32, ptr %51, align 8, !tbaa !42
  %53 = sub i32 %46, %52
  store i32 %53, ptr %15, align 4, !tbaa !37
  br label %62

54:                                               ; preds = %33
  %55 = load ptr, ptr %14, align 8, !tbaa !8
  %56 = getelementptr inbounds nuw %struct.DdNode, ptr %55, i32 0, i32 0
  %57 = load i32, ptr %56, align 8, !tbaa !42
  %58 = load ptr, ptr %7, align 8, !tbaa !8
  %59 = getelementptr inbounds nuw %struct.DdNode, ptr %58, i32 0, i32 0
  %60 = load i32, ptr %59, align 8, !tbaa !42
  %61 = add i32 %57, %60
  store i32 %61, ptr %15, align 4, !tbaa !37
  br label %62

62:                                               ; preds = %54, %43
  %63 = load ptr, ptr %14, align 8, !tbaa !8
  %64 = load ptr, ptr %6, align 8, !tbaa !8
  %65 = icmp ne ptr %63, %64
  br i1 %65, label %66, label %81

66:                                               ; preds = %62
  %67 = load ptr, ptr %14, align 8, !tbaa !8
  %68 = getelementptr inbounds nuw %struct.DdNode, ptr %67, i32 0, i32 3
  %69 = getelementptr inbounds nuw %struct.DdChildren, ptr %68, i32 0, i32 1
  %70 = load ptr, ptr %69, align 8, !tbaa !43
  %71 = ptrtoint ptr %70 to i64
  %72 = xor i64 %71, 1
  %73 = inttoptr i64 %72 to ptr
  store ptr %73, ptr %12, align 8, !tbaa !8
  %74 = load ptr, ptr %14, align 8, !tbaa !8
  %75 = getelementptr inbounds nuw %struct.DdNode, ptr %74, i32 0, i32 3
  %76 = getelementptr inbounds nuw %struct.DdChildren, ptr %75, i32 0, i32 0
  %77 = load ptr, ptr %76, align 8, !tbaa !43
  %78 = ptrtoint ptr %77 to i64
  %79 = xor i64 %78, 1
  %80 = inttoptr i64 %79 to ptr
  store ptr %80, ptr %13, align 8, !tbaa !8
  br label %90

81:                                               ; preds = %62
  %82 = load ptr, ptr %14, align 8, !tbaa !8
  %83 = getelementptr inbounds nuw %struct.DdNode, ptr %82, i32 0, i32 3
  %84 = getelementptr inbounds nuw %struct.DdChildren, ptr %83, i32 0, i32 1
  %85 = load ptr, ptr %84, align 8, !tbaa !43
  store ptr %85, ptr %12, align 8, !tbaa !8
  %86 = load ptr, ptr %14, align 8, !tbaa !8
  %87 = getelementptr inbounds nuw %struct.DdNode, ptr %86, i32 0, i32 3
  %88 = getelementptr inbounds nuw %struct.DdChildren, ptr %87, i32 0, i32 0
  %89 = load ptr, ptr %88, align 8, !tbaa !43
  store ptr %89, ptr %13, align 8, !tbaa !8
  br label %90

90:                                               ; preds = %81, %66
  %91 = load ptr, ptr %5, align 8, !tbaa !3
  %92 = load ptr, ptr %12, align 8, !tbaa !8
  %93 = load ptr, ptr %7, align 8, !tbaa !8
  %94 = call ptr @extraBddMove(ptr noundef %91, ptr noundef %92, ptr noundef %93)
  store ptr %94, ptr %10, align 8, !tbaa !8
  %95 = load ptr, ptr %10, align 8, !tbaa !8
  %96 = icmp eq ptr %95, null
  br i1 %96, label %97, label %98

97:                                               ; preds = %90
  store ptr null, ptr %4, align 8
  store i32 1, ptr %9, align 4
  br label %165

98:                                               ; preds = %90
  %99 = load ptr, ptr %10, align 8, !tbaa !8
  %100 = ptrtoint ptr %99 to i64
  %101 = and i64 %100, -2
  %102 = inttoptr i64 %101 to ptr
  %103 = getelementptr inbounds nuw %struct.DdNode, ptr %102, i32 0, i32 1
  %104 = load i32, ptr %103, align 4, !tbaa !34
  %105 = add i32 %104, 1
  store i32 %105, ptr %103, align 4, !tbaa !34
  %106 = load ptr, ptr %5, align 8, !tbaa !3
  %107 = load ptr, ptr %13, align 8, !tbaa !8
  %108 = load ptr, ptr %7, align 8, !tbaa !8
  %109 = call ptr @extraBddMove(ptr noundef %106, ptr noundef %107, ptr noundef %108)
  store ptr %109, ptr %11, align 8, !tbaa !8
  %110 = load ptr, ptr %11, align 8, !tbaa !8
  %111 = icmp eq ptr %110, null
  br i1 %111, label %112, label %115

112:                                              ; preds = %98
  %113 = load ptr, ptr %5, align 8, !tbaa !3
  %114 = load ptr, ptr %10, align 8, !tbaa !8
  call void @Cudd_RecursiveDeref(ptr noundef %113, ptr noundef %114)
  store ptr null, ptr %4, align 8
  store i32 1, ptr %9, align 4
  br label %165

115:                                              ; preds = %98
  %116 = load ptr, ptr %11, align 8, !tbaa !8
  %117 = ptrtoint ptr %116 to i64
  %118 = and i64 %117, -2
  %119 = inttoptr i64 %118 to ptr
  %120 = getelementptr inbounds nuw %struct.DdNode, ptr %119, i32 0, i32 1
  %121 = load i32, ptr %120, align 4, !tbaa !34
  %122 = add i32 %121, 1
  store i32 %122, ptr %120, align 4, !tbaa !34
  %123 = load ptr, ptr %5, align 8, !tbaa !3
  %124 = load ptr, ptr %5, align 8, !tbaa !3
  %125 = getelementptr inbounds nuw %struct.DdManager, ptr %124, i32 0, i32 41
  %126 = load ptr, ptr %125, align 8, !tbaa !45
  %127 = load i32, ptr %15, align 4, !tbaa !37
  %128 = sext i32 %127 to i64
  %129 = getelementptr inbounds ptr, ptr %126, i64 %128
  %130 = load ptr, ptr %129, align 8, !tbaa !8
  %131 = load ptr, ptr %11, align 8, !tbaa !8
  %132 = load ptr, ptr %10, align 8, !tbaa !8
  %133 = call ptr @cuddBddIteRecur(ptr noundef %123, ptr noundef %130, ptr noundef %131, ptr noundef %132)
  store ptr %133, ptr %8, align 8, !tbaa !8
  %134 = load ptr, ptr %8, align 8, !tbaa !8
  %135 = icmp eq ptr %134, null
  br i1 %135, label %136, label %141

136:                                              ; preds = %115
  %137 = load ptr, ptr %5, align 8, !tbaa !3
  %138 = load ptr, ptr %10, align 8, !tbaa !8
  call void @Cudd_RecursiveDeref(ptr noundef %137, ptr noundef %138)
  %139 = load ptr, ptr %5, align 8, !tbaa !3
  %140 = load ptr, ptr %11, align 8, !tbaa !8
  call void @Cudd_RecursiveDeref(ptr noundef %139, ptr noundef %140)
  store ptr null, ptr %4, align 8
  store i32 1, ptr %9, align 4
  br label %165

141:                                              ; preds = %115
  %142 = load ptr, ptr %8, align 8, !tbaa !8
  %143 = ptrtoint ptr %142 to i64
  %144 = and i64 %143, -2
  %145 = inttoptr i64 %144 to ptr
  %146 = getelementptr inbounds nuw %struct.DdNode, ptr %145, i32 0, i32 1
  %147 = load i32, ptr %146, align 4, !tbaa !34
  %148 = add i32 %147, 1
  store i32 %148, ptr %146, align 4, !tbaa !34
  %149 = load ptr, ptr %5, align 8, !tbaa !3
  %150 = load ptr, ptr %10, align 8, !tbaa !8
  call void @Cudd_RecursiveDeref(ptr noundef %149, ptr noundef %150)
  %151 = load ptr, ptr %5, align 8, !tbaa !3
  %152 = load ptr, ptr %11, align 8, !tbaa !8
  call void @Cudd_RecursiveDeref(ptr noundef %151, ptr noundef %152)
  %153 = load ptr, ptr %5, align 8, !tbaa !3
  %154 = load ptr, ptr %6, align 8, !tbaa !8
  %155 = load ptr, ptr %7, align 8, !tbaa !8
  %156 = load ptr, ptr %8, align 8, !tbaa !8
  call void @cuddCacheInsert2(ptr noundef %153, ptr noundef @extraBddMove, ptr noundef %154, ptr noundef %155, ptr noundef %156)
  %157 = load ptr, ptr %8, align 8, !tbaa !8
  %158 = ptrtoint ptr %157 to i64
  %159 = and i64 %158, -2
  %160 = inttoptr i64 %159 to ptr
  %161 = getelementptr inbounds nuw %struct.DdNode, ptr %160, i32 0, i32 1
  %162 = load i32, ptr %161, align 4, !tbaa !34
  %163 = add i32 %162, -1
  store i32 %163, ptr %161, align 4, !tbaa !34
  %164 = load ptr, ptr %8, align 8, !tbaa !8
  store ptr %164, ptr %4, align 8
  store i32 1, ptr %9, align 4
  br label %165

165:                                              ; preds = %141, %136, %112, %97
  call void @llvm.lifetime.end.p0(i64 4, ptr %15) #10
  call void @llvm.lifetime.end.p0(i64 8, ptr %14) #10
  call void @llvm.lifetime.end.p0(i64 8, ptr %13) #10
  call void @llvm.lifetime.end.p0(i64 8, ptr %12) #10
  call void @llvm.lifetime.end.p0(i64 8, ptr %11) #10
  call void @llvm.lifetime.end.p0(i64 8, ptr %10) #10
  br label %166

166:                                              ; preds = %165, %31, %23
  call void @llvm.lifetime.end.p0(i64 8, ptr %8) #10
  %167 = load ptr, ptr %4, align 8
  ret ptr %167
}