; Function Attrs: nounwind uwtable
define ptr @extraBddMove(ptr noundef %0, ptr noundef %1, ptr noundef %2) #0 {
  %4 = ptrtoint ptr %1 to i64
  %5 = and i64 %4, -2
  %6 = inttoptr i64 %5 to ptr
  %7 = load i32, ptr %6, align 8, !tbaa !35
  %8 = icmp eq i32 %7, 2147483647
  br i1 %8, label %74, label %9

9:                                                ; preds = %3
  %10 = tail call ptr @cuddCacheLookup2(ptr noundef %0, ptr noundef nonnull @extraBddMove, ptr noundef %1, ptr noundef %2) #19
  %.not = icmp eq ptr %10, null
  br i1 %.not, label %11, label %74

11:                                               ; preds = %9
  %12 = ptrtoint ptr %2 to i64
  %13 = and i64 %12, 1
  %.not60 = icmp eq i64 %13, 0
  %14 = load i32, ptr %6, align 8, !tbaa !35
  br i1 %.not60, label %20, label %15

15:                                               ; preds = %11
  %16 = and i64 %12, -2
  %17 = inttoptr i64 %16 to ptr
  %18 = load i32, ptr %17, align 8, !tbaa !35
  %19 = sub i32 %14, %18
  br label %23

20:                                               ; preds = %11
  %21 = load i32, ptr %2, align 8, !tbaa !35
  %22 = add i32 %21, %14
  br label %23

23:                                               ; preds = %20, %15
  %.0 = phi i32 [ %19, %15 ], [ %22, %20 ]
  %.not61 = icmp eq ptr %1, %6
  %24 = getelementptr inbounds nuw i8, ptr %6, i64 16
  %25 = getelementptr inbounds nuw i8, ptr %6, i64 24
  %26 = load ptr, ptr %25, align 8, !tbaa !36
  br i1 %.not61, label %35, label %27

27:                                               ; preds = %23
  %28 = ptrtoint ptr %26 to i64
  %29 = xor i64 %28, 1
  %30 = inttoptr i64 %29 to ptr
  %31 = load ptr, ptr %24, align 8, !tbaa !36
  %32 = ptrtoint ptr %31 to i64
  %33 = xor i64 %32, 1
  %34 = inttoptr i64 %33 to ptr
  br label %37

35:                                               ; preds = %23
  %36 = load ptr, ptr %24, align 8, !tbaa !36
  br label %37

37:                                               ; preds = %35, %27
  %.053 = phi ptr [ %30, %27 ], [ %26, %35 ]
  %.052 = phi ptr [ %34, %27 ], [ %36, %35 ]
  %38 = tail call ptr @extraBddMove(ptr noundef %0, ptr noundef %.053, ptr noundef %2)
  %39 = icmp eq ptr %38, null
  br i1 %39, label %74, label %40

40:                                               ; preds = %37
  %41 = ptrtoint ptr %38 to i64
  %42 = and i64 %41, -2
  %43 = inttoptr i64 %42 to ptr
  %44 = getelementptr inbounds nuw i8, ptr %43, i64 4
  %45 = load i32, ptr %44, align 4, !tbaa !24
  %46 = add i32 %45, 1
  store i32 %46, ptr %44, align 4, !tbaa !24
  %47 = tail call ptr @extraBddMove(ptr noundef %0, ptr noundef %.052, ptr noundef %2)
  %48 = icmp eq ptr %47, null
  br i1 %48, label %49, label %50

49:                                               ; preds = %40
  tail call void @Cudd_RecursiveDeref(ptr noundef %0, ptr noundef nonnull %38) #19
  br label %74

50:                                               ; preds = %40
  %51 = ptrtoint ptr %47 to i64
  %52 = and i64 %51, -2
  %53 = inttoptr i64 %52 to ptr
  %54 = getelementptr inbounds nuw i8, ptr %53, i64 4
  %55 = load i32, ptr %54, align 4, !tbaa !24
  %56 = add i32 %55, 1
  store i32 %56, ptr %54, align 4, !tbaa !24
  %57 = getelementptr inbounds nuw i8, ptr %0, i64 344
  %58 = load ptr, ptr %57, align 8, !tbaa !38
  %59 = sext i32 %.0 to i64
  %60 = getelementptr inbounds ptr, ptr %58, i64 %59
  %61 = load ptr, ptr %60, align 8, !tbaa !25
  %62 = tail call ptr @cuddBddIteRecur(ptr noundef %0, ptr noundef %61, ptr noundef nonnull %47, ptr noundef nonnull %38) #19
  %63 = icmp eq ptr %62, null
  br i1 %63, label %64, label %65

64:                                               ; preds = %50
  tail call void @Cudd_RecursiveDeref(ptr noundef nonnull %0, ptr noundef nonnull %38) #19
  tail call void @Cudd_RecursiveDeref(ptr noundef nonnull %0, ptr noundef nonnull %47) #19
  br label %74

65:                                               ; preds = %50
  %66 = ptrtoint ptr %62 to i64
  %67 = and i64 %66, -2
  %68 = inttoptr i64 %67 to ptr
  %69 = getelementptr inbounds nuw i8, ptr %68, i64 4
  %70 = load i32, ptr %69, align 4, !tbaa !24
  %71 = add i32 %70, 1
  store i32 %71, ptr %69, align 4, !tbaa !24
  tail call void @Cudd_RecursiveDeref(ptr noundef nonnull %0, ptr noundef nonnull %38) #19
  tail call void @Cudd_RecursiveDeref(ptr noundef nonnull %0, ptr noundef nonnull %47) #19
  tail call void @cuddCacheInsert2(ptr noundef nonnull %0, ptr noundef nonnull @extraBddMove, ptr noundef %1, ptr noundef %2, ptr noundef nonnull %62) #19
  %72 = load i32, ptr %69, align 4, !tbaa !24
  %73 = add i32 %72, -1
  store i32 %73, ptr %69, align 4, !tbaa !24
  br label %74

74:                                               ; preds = %49, %64, %65, %37, %9, %3
  %.051 = phi ptr [ %1, %3 ], [ %10, %9 ], [ null, %49 ], [ null, %64 ], [ %62, %65 ], [ null, %37 ]
  ret ptr %.051
}